target datalayout = "e-m:e-p270:32:32-p271:32:32-p272:64:64-i64:64-i128:128-f80:128-n8:16:32:64-S128"
target triple = "x86_64-pc-linux-gnu"

%struct.dbus_packet_t = type { ptr, ptr, i32, i32, i8, i32, i32, ptr, ptr, ptr, ptr, ptr, i32, ptr, ptr, ptr, i32 }
%struct._packet_info = type { ptr, ptr, i32, i32, %struct.nstime_t, %struct.nstime_t, %struct.nstime_t, i8, ptr, ptr, ptr, ptr, %struct._address, %struct._address, %struct._address, %struct._address, %struct._address, %struct._address, i32, ptr, i8, [3 x i8], %struct.anon, i32, i32, i32, i32, ptr, i8, ptr, ptr, i16, i16, i32, i32, i16, i32, i32, ptr, ptr, ptr, i8, i8, i16, i16, i16, i32, i16, i16, ptr, ptr, ptr, ptr, ptr, i32, i32 }
%struct.nstime_t = type { i64, i32 }
%struct._address = type { i32, i32, ptr, ptr }
%struct.anon = type { i8, [3 x i8] }

; Function Attrs: nounwind null_pointer_is_valid sspstrong uwtable
define internal zeroext i1 @is_basic_type(i8 noundef signext %0) #6 {
  %2 = alloca i1, align 1
  %3 = alloca i8, align 1
  store i8 %0, ptr %3, align 1
  %4 = load i8, ptr %3, align 1
  %5 = sext i8 %4 to i32
  switch i32 %5, label %7 [
    i32 121, label %6
    i32 98, label %6
    i32 110, label %6
    i32 113, label %6
    i32 105, label %6
    i32 117, label %6
    i32 120, label %6
    i32 116, label %6
    i32 100, label %6
    i32 115, label %6
    i32 111, label %6
    i32 103, label %6
    i32 104, label %6
  ]

6:                                                ; preds = %1, %1, %1, %1, %1, %1, %1, %1, %1, %1, %1, %1, %1
  store i1 true, ptr %2, align 1
  br label %8

7:                                                ; preds = %1
  store i1 false, ptr %2, align 1
  br label %8

8:                                                ; preds = %7, %6
  %9 = load i1, ptr %2, align 1
  ret i1 %9
}

; Function Attrs: null_pointer_is_valid sspstrong uwtable
define internal zeroext i1 @is_dbus_signature_valid(ptr noundef %0, ptr noundef %1) #0 {
  %3 = alloca i1, align 1
  %4 = alloca ptr, align 8
  %5 = alloca ptr, align 8
  %6 = alloca i8, align 1
  %7 = alloca i64, align 8
  %8 = alloca i8, align 1
  %9 = alloca ptr, align 8
  %10 = alloca i32, align 4
  %11 = alloca ptr, align 8
  store ptr %0, ptr %4, align 8
  store ptr %1, ptr %5, align 8
  call void @llvm.lifetime.start.p0(i64 1, ptr %6) #11
  call void @llvm.lifetime.start.p0(i64 8, ptr %7) #11
  store i64 0, ptr %7, align 8
  call void @llvm.lifetime.start.p0(i64 1, ptr %8) #11
  store i8 0, ptr %8, align 1
  call void @llvm.lifetime.start.p0(i64 8, ptr %9) #11
  %12 = load ptr, ptr %5, align 8
  %13 = getelementptr inbounds nuw %struct.dbus_packet_t, ptr %12, i32 0, i32 1
  %14 = load ptr, ptr %13, align 8
  %15 = getelementptr inbounds nuw %struct._packet_info, ptr %14, i32 0, i32 51
  %16 = load ptr, ptr %15, align 8
  %17 = call noalias ptr @wmem_list_new(ptr noundef %16)
  store ptr %17, ptr %9, align 8
  br label %18

18:                                               ; preds = %88, %2
  %19 = load ptr, ptr %4, align 8
  %20 = getelementptr i8, ptr %19, i32 1
  store ptr %20, ptr %4, align 8
  %21 = load i8, ptr %19, align 1
  store i8 %21, ptr %6, align 1
  %22 = sext i8 %21 to i32
  %23 = icmp ne i32 %22, 0
  br i1 %23, label %24, label %90

24:                                               ; preds = %18
  %25 = load i64, ptr %7, align 8
  %26 = add i64 %25, 1
  store i64 %26, ptr %7, align 8
  %27 = icmp uge i64 %26, 255
  br i1 %27, label %28, label %29

28:                                               ; preds = %24
  store i1 false, ptr %3, align 1
  store i32 1, ptr %10, align 4
  br label %94

29:                                               ; preds = %24
  %30 = load i8, ptr %6, align 1
  %31 = sext i8 %30 to i32
  switch i32 %31, label %87 [
    i32 121, label %32
    i32 103, label %32
    i32 118, label %32
    i32 110, label %32
    i32 113, label %32
    i32 105, label %32
    i32 117, label %32
    i32 98, label %32
    i32 111, label %32
    i32 115, label %32
    i32 104, label %32
    i32 120, label %32
    i32 116, label %32
    i32 100, label %32
    i32 97, label %33
    i32 40, label %39
    i32 123, label %47
    i32 41, label %72
    i32 125, label %72
  ]

32:                                               ; preds = %29, %29, %29, %29, %29, %29, %29, %29, %29, %29, %29, %29, %29, %29
  br label %88

33:                                               ; preds = %29
  %34 = load ptr, ptr %4, align 8
  %35 = load i8, ptr %34, align 1
  %36 = sext i8 %35 to i32
  switch i32 %36, label %38 [
    i32 0, label %37
    i32 41, label %37
    i32 125, label %37
  ]

37:                                               ; preds = %33, %33, %33
  store i1 false, ptr %3, align 1
  store i32 1, ptr %10, align 4
  br label %94

38:                                               ; preds = %33
  br label %88

39:                                               ; preds = %29
  %40 = load ptr, ptr %4, align 8
  %41 = load i8, ptr %40, align 1
  %42 = sext i8 %41 to i32
  %43 = icmp eq i32 %42, 41
  br i1 %43, label %44, label %45

44:                                               ; preds = %39
  store i1 false, ptr %3, align 1
  store i32 1, ptr %10, align 4
  br label %94

45:                                               ; preds = %39
  %46 = load ptr, ptr %9, align 8
  call void @wmem_list_prepend(ptr noundef %46, ptr noundef inttoptr (i64 41 to ptr))
  br label %88

47:                                               ; preds = %29
  %48 = load i8, ptr %8, align 1
  %49 = sext i8 %48 to i32
  %50 = icmp ne i32 %49, 97
  br i1 %50, label %55, label %51

51:                                               ; preds = %47
  %52 = load ptr, ptr %4, align 8
  %53 = load i8, ptr %52, align 1
  %54 = call zeroext i1 @is_basic_type(i8 noundef signext %53)
  br i1 %54, label %56, label %55

55:                                               ; preds = %51, %47
  store i1 false, ptr %3, align 1
  store i32 1, ptr %10, align 4
  br label %94

56:                                               ; preds = %51
  call void @llvm.lifetime.start.p0(i64 8, ptr %11) #11
  %57 = load ptr, ptr %4, align 8
  %58 = getelementptr i8, ptr %57, i64 1
  %59 = call ptr @skip_single_complete_type(ptr noundef %58)
  store ptr %59, ptr %11, align 8
  %60 = load ptr, ptr %11, align 8
  %61 = icmp ne ptr %60, null
  br i1 %61, label %62, label %67

62:                                               ; preds = %56
  %63 = load ptr, ptr %11, align 8
  %64 = load i8, ptr %63, align 1
  %65 = sext i8 %64 to i32
  %66 = icmp ne i32 %65, 125
  br i1 %66, label %67, label %68

67:                                               ; preds = %62, %56
  store i1 false, ptr %3, align 1
  store i32 1, ptr %10, align 4
  br label %70

68:                                               ; preds = %62
  %69 = load ptr, ptr %9, align 8
  call void @wmem_list_prepend(ptr noundef %69, ptr noundef inttoptr (i64 125 to ptr))
  store i32 4, ptr %10, align 4
  br label %70

70:                                               ; preds = %68, %67
  call void @llvm.lifetime.end.p0(i64 8, ptr %11) #11
  %71 = load i32, ptr %10, align 4
  switch i32 %71, label %94 [
    i32 4, label %88
  ]

72:                                               ; preds = %29, %29
  %73 = load ptr, ptr %9, align 8
  %74 = call i32 @wmem_list_count(ptr noundef %73)
  %75 = icmp eq i32 %74, 0
  br i1 %75, label %85, label %76

76:                                               ; preds = %72
  %77 = load ptr, ptr %9, align 8
  %78 = call ptr @wmem_stack_pop(ptr noundef %77)
  %79 = ptrtoint ptr %78 to i64
  %80 = trunc i64 %79 to i8
  %81 = sext i8 %80 to i32
  %82 = load i8, ptr %6, align 1
  %83 = sext i8 %82 to i32
  %84 = icmp ne i32 %81, %83
  br i1 %84, label %85, label %86

85:                                               ; preds = %76, %72
  store i1 false, ptr %3, align 1
  store i32 1, ptr %10, align 4
  br label %94

86:                                               ; preds = %76
  br label %88

87:                                               ; preds = %29
  store i1 false, ptr %3, align 1
  store i32 1, ptr %10, align 4
  br label %94

88:                                               ; preds = %86, %70, %45, %38, %32
  %89 = load i8, ptr %6, align 1
  store i8 %89, ptr %8, align 1
  br label %18, !llvm.loop !20

90:                                               ; preds = %18
  %91 = load ptr, ptr %9, align 8
  %92 = call i32 @wmem_list_count(ptr noundef %91)
  %93 = icmp eq i32 %92, 0
  store i1 %93, ptr %3, align 1
  store i32 1, ptr %10, align 4
  br label %94

94:                                               ; preds = %90, %87, %85, %70, %55, %44, %37, %28
  call void @llvm.lifetime.end.p0(i64 8, ptr %9) #11
  call void @llvm.lifetime.end.p0(i64 1, ptr %8) #11
  call void @llvm.lifetime.end.p0(i64 8, ptr %7) #11
  call void @llvm.lifetime.end.p0(i64 1, ptr %6) #11
  %95 = load i1, ptr %3, align 1
  ret i1 %95
}