; Function Attrs: null_pointer_is_valid sspstrong uwtable
define internal fastcc zeroext i1 @is_dbus_signature_valid(ptr noundef nonnull readonly captures(address) %0, ptr %.8.val.408.val) unnamed_addr #0 {
  %2 = tail call noalias ptr @wmem_list_new(ptr noundef %.8.val.408.val)
  %3 = load i8, ptr %0, align 1
  %.not2 = icmp eq i8 %3, 0
  br i1 %.not2, label %._crit_edge, label %.lr.ph

.lr.ph:                                           ; preds = %1, %30
  %4 = phi i8 [ %31, %30 ], [ %3, %1 ]
  %.0205 = phi ptr [ %5, %30 ], [ %0, %1 ]
  %.0214 = phi i8 [ %4, %30 ], [ 0, %1 ]
  %.0223 = phi i64 [ %7, %30 ], [ 0, %1 ]
  %5 = getelementptr i8, ptr %.0205, i64 1
  %6 = sext i8 %4 to i32
  %7 = add nuw nsw i64 %.0223, 1
  %exitcond = icmp eq i64 %.0223, 254
  br i1 %exitcond, label %is_basic_type.exit, label %8

8:                                                ; preds = %.lr.ph
  switch i8 %4, label %is_basic_type.exit [
    i8 121, label %thread-pre-split
    i8 103, label %thread-pre-split
    i8 118, label %thread-pre-split
    i8 110, label %thread-pre-split
    i8 113, label %thread-pre-split
    i8 105, label %thread-pre-split
    i8 117, label %thread-pre-split
    i8 98, label %thread-pre-split
    i8 111, label %thread-pre-split
    i8 115, label %thread-pre-split
    i8 104, label %thread-pre-split
    i8 120, label %thread-pre-split
    i8 116, label %thread-pre-split
    i8 100, label %thread-pre-split
    i8 97, label %9
    i8 40, label %11
    i8 123, label %14
    i8 41, label %22
    i8 125, label %22
  ]

9:                                                ; preds = %8
  %10 = load i8, ptr %5, align 1
  switch i8 %10, label %30 [
    i8 0, label %is_basic_type.exit
    i8 41, label %is_basic_type.exit
    i8 125, label %is_basic_type.exit
  ]

11:                                               ; preds = %8
  %12 = load i8, ptr %5, align 1
  %13 = icmp eq i8 %12, 41
  br i1 %13, label %is_basic_type.exit, label %thread-pre-split.sink.split

14:                                               ; preds = %8
  %.not27 = icmp eq i8 %.0214, 97
  br i1 %.not27, label %15, label %is_basic_type.exit

15:                                               ; preds = %14
  %16 = load i8, ptr %5, align 1
  switch i8 %16, label %is_basic_type.exit [
    i8 121, label %17
    i8 98, label %17
    i8 110, label %17
    i8 113, label %17
    i8 105, label %17
    i8 117, label %17
    i8 120, label %17
    i8 116, label %17
    i8 100, label %17
    i8 115, label %17
    i8 111, label %17
    i8 103, label %17
    i8 104, label %17
  ]

17:                                               ; preds = %15, %15, %15, %15, %15, %15, %15, %15, %15, %15, %15, %15, %15
  %18 = getelementptr i8, ptr %.0205, i64 2
  %19 = tail call fastcc ptr @skip_single_complete_type(ptr noundef %18)
  %.not28 = icmp eq ptr %19, null
  br i1 %.not28, label %is_basic_type.exit, label %20

20:                                               ; preds = %17
  %21 = load i8, ptr %19, align 1
  %.not29 = icmp eq i8 %21, 125
  br i1 %.not29, label %thread-pre-split.sink.split, label %is_basic_type.exit

22:                                               ; preds = %8, %8
  %23 = tail call i32 @wmem_list_count(ptr noundef %2)
  %24 = icmp eq i32 %23, 0
  br i1 %24, label %is_basic_type.exit, label %25

25:                                               ; preds = %22
  %26 = tail call ptr @wmem_stack_pop(ptr noundef %2)
  %27 = ptrtoint ptr %26 to i64
  %28 = trunc i64 %27 to i32
  %sext = shl i32 %28, 24
  %29 = ashr exact i32 %sext, 24
  %.not26 = icmp eq i32 %29, %6
  br i1 %.not26, label %thread-pre-split, label %is_basic_type.exit

thread-pre-split.sink.split:                      ; preds = %20, %11
  %.sink = phi ptr [ inttoptr (i64 41 to ptr), %11 ], [ inttoptr (i64 125 to ptr), %20 ]
  tail call void @wmem_list_prepend(ptr noundef %2, ptr noundef nonnull %.sink)
  br label %thread-pre-split

thread-pre-split:                                 ; preds = %thread-pre-split.sink.split, %8, %8, %8, %8, %8, %8, %8, %8, %8, %8, %8, %8, %8, %8, %25
  %.pr = load i8, ptr %5, align 1
  br label %30

30:                                               ; preds = %thread-pre-split, %9
  %31 = phi i8 [ %.pr, %thread-pre-split ], [ %10, %9 ]
  %.not = icmp eq i8 %31, 0
  br i1 %.not, label %._crit_edge, label %.lr.ph, !llvm.loop !19

._crit_edge:                                      ; preds = %30, %1
  %32 = tail call i32 @wmem_list_count(ptr noundef %2)
  %33 = icmp eq i32 %32, 0
  br label %is_basic_type.exit

is_basic_type.exit:                               ; preds = %15, %8, %22, %25, %20, %17, %14, %11, %9, %9, %9, %.lr.ph, %._crit_edge
  %.1 = phi i1 [ %33, %._crit_edge ], [ false, %.lr.ph ], [ false, %9 ], [ false, %9 ], [ false, %9 ], [ false, %11 ], [ false, %14 ], [ false, %17 ], [ false, %20 ], [ false, %25 ], [ false, %22 ], [ false, %8 ], [ false, %15 ]
  ret i1 %.1
}